; Function Attrs: inlinehint mustprogress optsize uwtable
define internal noundef ptr @"_ZZN8nanobind6detail11func_createILb0ELb1EZL32nanobind_init_test_functions_extRNS_7module_EE4$_17NS_6objectEJNS_5typedIS5_JSt8functionIFiiEEEEEEJLm0EEJNS_5scopeENS_4nameEEEEP7_objectOT1_PFT2_DpT3_ESt16integer_sequenceImJXspT4_EEEDpRKT5_ENUlPvPSE_PhNS_9rv_policyEPNS0_12cleanup_listEE_8__invokeESS_ST_SU_SV_SX_"(ptr readnone captures(none) %0, ptr noundef readonly captures(none) %1, ptr noundef readonly captures(none) %2, i32 %3, ptr noundef %4) #15 align 2 personality ptr @__gxx_personality_v0 {
  %6 = alloca i32, align 4
  %7 = alloca %"struct.nanobind::detail::tuple.278", align 8
  %8 = alloca %"class.nanobind::object", align 8
  %9 = alloca %"class.nanobind::typed", align 8
  call void @llvm.lifetime.start.p0(i64 8, ptr nonnull %9)
  call void @llvm.lifetime.start.p0(i64 8, ptr nonnull %7) #27
  store ptr null, ptr %7, align 8, !tbaa !44
  %10 = load ptr, ptr %1, align 8, !tbaa !158
  %11 = load i8, ptr %2, align 1, !tbaa !41
  %12 = call noundef zeroext i1 @_ZN8nanobind6detail11type_casterINS_5typedINS_6objectEJSt8functionIFiiEEEEEiE11from_pythonENS_6handleEhPNS0_12cleanup_listE(ptr noundef nonnull align 8 dereferenceable(8) %7, ptr %10, i8 noundef zeroext %11, ptr noundef %4) #31
  br i1 %12, label %13, label %"_ZZN8nanobind6detail11func_createILb0ELb1EZL32nanobind_init_test_functions_extRNS_7module_EE4$_17NS_6objectEJNS_5typedIS5_JSt8functionIFiiEEEEEEJLm0EEJNS_5scopeENS_4nameEEEEP7_objectOT1_PFT2_DpT3_ESt16integer_sequenceImJXspT4_EEEDpRKT5_ENKUlPvPSE_PhNS_9rv_policyEPNS0_12cleanup_listEE_clESS_ST_SU_SV_SX_.exit"

13:                                               ; preds = %5
  call void @llvm.lifetime.start.p0(i64 8, ptr nonnull %8) #27
  %14 = load i64, ptr %7, align 8
  store i64 %14, ptr %9, align 8
  store ptr null, ptr %7, align 8, !tbaa !44
  call void @llvm.lifetime.start.p0(i64 4, ptr nonnull %6) #27, !noalias !196
  store i32 1, ptr %6, align 4, !tbaa !36, !noalias !196
  invoke void @_ZNK8nanobind6detail3apiINS_6handleEEclILNS_9rv_policyE1EJiEEENS_6objectEDpOT0_(ptr dead_on_unwind nonnull writable sret(%"class.nanobind::object") align 8 %8, ptr noundef nonnull align 1 dereferenceable(1) %9, ptr noundef nonnull align 4 dereferenceable(4) %6) #28
          to label %15 unwind label %19

15:                                               ; preds = %13
  call void @llvm.lifetime.end.p0(i64 4, ptr nonnull %6) #27, !noalias !196
  %16 = load ptr, ptr %8, align 8, !tbaa !44
  store ptr null, ptr %8, align 8, !tbaa !44
  %17 = call noundef nonnull align 8 dereferenceable(8) ptr @_ZNKR8nanobind6handle7dec_refEv(ptr noundef nonnull align 8 dereferenceable(8) %8) #31
  %18 = call noundef nonnull align 8 dereferenceable(8) ptr @_ZNKR8nanobind6handle7dec_refEv(ptr noundef nonnull align 8 dereferenceable(8) %9) #31
  call void @llvm.lifetime.end.p0(i64 8, ptr nonnull %8) #27
  br label %"_ZZN8nanobind6detail11func_createILb0ELb1EZL32nanobind_init_test_functions_extRNS_7module_EE4$_17NS_6objectEJNS_5typedIS5_JSt8functionIFiiEEEEEEJLm0EEJNS_5scopeENS_4nameEEEEP7_objectOT1_PFT2_DpT3_ESt16integer_sequenceImJXspT4_EEEDpRKT5_ENKUlPvPSE_PhNS_9rv_policyEPNS0_12cleanup_listEE_clESS_ST_SU_SV_SX_.exit"

19:                                               ; preds = %13
  %20 = landingpad { ptr, i32 }
          cleanup
  %21 = call noundef nonnull align 8 dereferenceable(8) ptr @_ZNKR8nanobind6handle7dec_refEv(ptr noundef nonnull align 8 dereferenceable(8) %9) #31
  call void @llvm.lifetime.end.p0(i64 8, ptr nonnull %8) #27
  %22 = call noundef nonnull align 8 dereferenceable(8) ptr @_ZNKR8nanobind6handle7dec_refEv(ptr noundef nonnull align 8 dereferenceable(8) %7) #31
  call void @llvm.lifetime.end.p0(i64 8, ptr nonnull %7) #27
  resume { ptr, i32 } %20

"_ZZN8nanobind6detail11func_createILb0ELb1EZL32nanobind_init_test_functions_extRNS_7module_EE4$_17NS_6objectEJNS_5typedIS5_JSt8functionIFiiEEEEEEJLm0EEJNS_5scopeENS_4nameEEEEP7_objectOT1_PFT2_DpT3_ESt16integer_sequenceImJXspT4_EEEDpRKT5_ENKUlPvPSE_PhNS_9rv_policyEPNS0_12cleanup_listEE_clESS_ST_SU_SV_SX_.exit": ; preds = %5, %15
  %.0.i = phi ptr [ %16, %15 ], [ inttoptr (i64 1 to ptr), %5 ]
  %23 = call noundef nonnull align 8 dereferenceable(8) ptr @_ZNKR8nanobind6handle7dec_refEv(ptr noundef nonnull align 8 dereferenceable(8) %7) #31
  call void @llvm.lifetime.end.p0(i64 8, ptr nonnull %7) #27
  call void @llvm.lifetime.end.p0(i64 8, ptr nonnull %9)
  ret ptr %.0.i
}